target datalayout = "e-m:e-p270:32:32-p271:32:32-p272:64:64-i64:64-i128:128-f80:128-n8:16:32:64-S128"
target triple = "x86_64-pc-linux-gnu"

@.str.31 = private unnamed_addr constant [13 x i8] c"wgnuplot.exe\00", align 1
@.str.32 = private unnamed_addr constant [8 x i8] c"gnuplot\00", align 1
@.str.33 = private unnamed_addr constant [2 x i8] c"r\00", align 1
@stdout = external global ptr, align 8
@.str.34 = private unnamed_addr constant [34 x i8] c"Cannot open the plot file \22%s\22.\0A\0A\00", align 1
@.str.35 = private unnamed_addr constant [11 x i8] c"gnuplotwin\00", align 1
@.str.36 = private unnamed_addr constant [12 x i8] c"gnuplotunix\00", align 1
@.str.37 = private unnamed_addr constant [52 x i8] c"Cannot find \22%s\22 or \22%s\22 in the current directory.\0A\00", align 1
@.str.38 = private unnamed_addr constant [7 x i8] c"%s %s \00", align 1
@.str.39 = private unnamed_addr constant [22 x i8] c"Cannot execute \22%s\22.\0A\00", align 1

; Function Attrs: nounwind uwtable
define void @Gia_ManGnuplotShow(ptr noundef %0) #0 {
  %2 = alloca ptr, align 8
  %3 = alloca ptr, align 8
  %4 = alloca ptr, align 8
  %5 = alloca ptr, align 8
  %6 = alloca ptr, align 8
  %7 = alloca ptr, align 8
  %8 = alloca [1000 x i8], align 16
  store ptr %0, ptr %2, align 8
  store ptr @.str.31, ptr %5, align 8
  store ptr @.str.32, ptr %6, align 8
  store ptr null, ptr %7, align 8
  %9 = load ptr, ptr %2, align 8
  %10 = call noalias ptr @fopen(ptr noundef %9, ptr noundef @.str.33)
  store ptr %10, ptr %3, align 8
  %11 = icmp eq ptr %10, null
  br i1 %11, label %12, label %16

12:                                               ; preds = %1
  %13 = load ptr, ptr @stdout, align 8
  %14 = load ptr, ptr %2, align 8
  %15 = call i32 (ptr, ptr, ...) @fprintf(ptr noundef %13, ptr noundef @.str.34, ptr noundef %14) #9
  br label %69

16:                                               ; preds = %1
  %17 = load ptr, ptr %3, align 8
  %18 = call i32 @fclose(ptr noundef %17)
  %19 = call ptr (...) @Abc_FrameGetGlobalFrame()
  store ptr %19, ptr %4, align 8
  %20 = load ptr, ptr %4, align 8
  %21 = call ptr @Cmd_FlagReadByName(ptr noundef %20, ptr noundef @.str.35)
  %22 = icmp ne ptr %21, null
  br i1 %22, label %23, label %26

23:                                               ; preds = %16
  %24 = load ptr, ptr %4, align 8
  %25 = call ptr @Cmd_FlagReadByName(ptr noundef %24, ptr noundef @.str.35)
  store ptr %25, ptr %5, align 8
  br label %26

26:                                               ; preds = %23, %16
  %27 = load ptr, ptr %4, align 8
  %28 = call ptr @Cmd_FlagReadByName(ptr noundef %27, ptr noundef @.str.36)
  %29 = icmp ne ptr %28, null
  br i1 %29, label %30, label %33

30:                                               ; preds = %26
  %31 = load ptr, ptr %4, align 8
  %32 = call ptr @Cmd_FlagReadByName(ptr noundef %31, ptr noundef @.str.36)
  store ptr %32, ptr %6, align 8
  br label %33

33:                                               ; preds = %30, %26
  %34 = load ptr, ptr %5, align 8
  %35 = call noalias ptr @fopen(ptr noundef %34, ptr noundef @.str.33)
  store ptr %35, ptr %3, align 8
  %36 = icmp ne ptr %35, null
  br i1 %36, label %37, label %39

37:                                               ; preds = %33
  %38 = load ptr, ptr %5, align 8
  store ptr %38, ptr %7, align 8
  br label %55

39:                                               ; preds = %33
  %40 = load ptr, ptr %6, align 8
  %41 = call noalias ptr @fopen(ptr noundef %40, ptr noundef @.str.33)
  store ptr %41, ptr %3, align 8
  %42 = icmp ne ptr %41, null
  br i1 %42, label %43, label %45

43:                                               ; preds = %39
  %44 = load ptr, ptr %6, align 8
  store ptr %44, ptr %7, align 8
  br label %54

45:                                               ; preds = %39
  %46 = load ptr, ptr %3, align 8
  %47 = icmp eq ptr %46, null
  br i1 %47, label %48, label %53

48:                                               ; preds = %45
  %49 = load ptr, ptr @stdout, align 8
  %50 = load ptr, ptr %5, align 8
  %51 = load ptr, ptr %6, align 8
  %52 = call i32 (ptr, ptr, ...) @fprintf(ptr noundef %49, ptr noundef @.str.37, ptr noundef %50, ptr noundef %51) #9
  br label %69

53:                                               ; preds = %45
  br label %54

54:                                               ; preds = %53, %43
  br label %55

55:                                               ; preds = %54, %37
  %56 = load ptr, ptr %3, align 8
  %57 = call i32 @fclose(ptr noundef %56)
  %58 = getelementptr inbounds [1000 x i8], ptr %8, i64 0, i64 0
  %59 = load ptr, ptr %7, align 8
  %60 = load ptr, ptr %2, align 8
  %61 = call i32 (ptr, ptr, ...) @sprintf(ptr noundef %58, ptr noundef @.str.38, ptr noundef %59, ptr noundef %60) #9
  %62 = getelementptr inbounds [1000 x i8], ptr %8, i64 0, i64 0
  %63 = call i32 @system(ptr noundef %62)
  %64 = icmp eq i32 %63, -1
  br i1 %64, label %65, label %69

65:                                               ; preds = %55
  %66 = load ptr, ptr @stdout, align 8
  %67 = getelementptr inbounds [1000 x i8], ptr %8, i64 0, i64 0
  %68 = call i32 (ptr, ptr, ...) @fprintf(ptr noundef %66, ptr noundef @.str.39, ptr noundef %67) #9
  br label %69

69:                                               ; preds = %65, %55, %48, %12
  ret void
}