; Function Attrs: nounwind uwtable
define void @Gia_ManGnuplotShow(ptr noundef %0) local_unnamed_addr #0 {
  %2 = alloca [1000 x i8], align 16
  %3 = tail call noalias ptr @fopen(ptr noundef %0, ptr noundef nonnull @.str.33)
  %4 = icmp eq ptr %3, null
  br i1 %4, label %5, label %8

5:                                                ; preds = %1
  %6 = load ptr, ptr @stdout, align 8
  %7 = tail call i32 (ptr, ptr, ...) @fprintf(ptr noundef %6, ptr noundef nonnull @.str.34, ptr noundef %0) #17
  br label %33

8:                                                ; preds = %1
  %9 = tail call i32 @fclose(ptr noundef nonnull %3)
  %10 = tail call ptr (...) @Abc_FrameGetGlobalFrame() #17
  %11 = tail call ptr @Cmd_FlagReadByName(ptr noundef %10, ptr noundef nonnull @.str.35) #17
  %.not = icmp eq ptr %11, null
  br i1 %.not, label %14, label %12

12:                                               ; preds = %8
  %13 = tail call ptr @Cmd_FlagReadByName(ptr noundef %10, ptr noundef nonnull @.str.35) #17
  br label %14

14:                                               ; preds = %12, %8
  %.018 = phi ptr [ %13, %12 ], [ @.str.31, %8 ]
  %15 = tail call ptr @Cmd_FlagReadByName(ptr noundef %10, ptr noundef nonnull @.str.36) #17
  %.not23 = icmp eq ptr %15, null
  br i1 %.not23, label %18, label %16

16:                                               ; preds = %14
  %17 = tail call ptr @Cmd_FlagReadByName(ptr noundef %10, ptr noundef nonnull @.str.36) #17
  br label %18

18:                                               ; preds = %16, %14
  %.017 = phi ptr [ %17, %16 ], [ @.str.32, %14 ]
  %19 = tail call noalias ptr @fopen(ptr noundef %.018, ptr noundef nonnull @.str.33)
  %.not24 = icmp eq ptr %19, null
  br i1 %.not24, label %20, label %25

20:                                               ; preds = %18
  %21 = tail call noalias ptr @fopen(ptr noundef %.017, ptr noundef nonnull @.str.33)
  %.not25 = icmp eq ptr %21, null
  br i1 %.not25, label %22, label %25

22:                                               ; preds = %20
  %23 = load ptr, ptr @stdout, align 8
  %24 = tail call i32 (ptr, ptr, ...) @fprintf(ptr noundef %23, ptr noundef nonnull @.str.37, ptr noundef %.018, ptr noundef %.017) #17
  br label %33

25:                                               ; preds = %20, %18
  %.019 = phi ptr [ %19, %18 ], [ %21, %20 ]
  %.0 = phi ptr [ %.018, %18 ], [ %.017, %20 ]
  %26 = tail call i32 @fclose(ptr noundef nonnull %.019)
  %27 = call i32 (ptr, ptr, ...) @sprintf(ptr noundef nonnull dereferenceable(1) %2, ptr noundef nonnull dereferenceable(1) @.str.38, ptr noundef %.0, ptr noundef %0) #17
  %28 = call i32 @system(ptr noundef nonnull %2) #17
  %29 = icmp eq i32 %28, -1
  br i1 %29, label %30, label %33

30:                                               ; preds = %25
  %31 = load ptr, ptr @stdout, align 8
  %32 = call i32 (ptr, ptr, ...) @fprintf(ptr noundef %31, ptr noundef nonnull @.str.39, ptr noundef nonnull %2) #17
  br label %33

33:                                               ; preds = %30, %25, %22, %5
  ret void
}